; ModuleID = '55/1330.cpp'
source_filename = "55/1330.cpp"
target datalayout = "e-m:e-p270:32:32-p271:32:32-p272:64:64-i64:64-f80:128-n8:16:32:64-S128"
target triple = "x86_64-pc-linux-gnu"

%"class.std::ios_base::Init" = type { i8 }
%"class.std::basic_istream" = type { i32 (...)**, i64, %"class.std::basic_ios" }
%"class.std::basic_ios" = type { %"class.std::ios_base", %"class.std::basic_ostream"*, i8, i8, %"class.std::basic_streambuf"*, %"class.std::ctype"*, %"class.std::num_put"*, %"class.std::num_get"* }
%"class.std::ios_base" = type { i32 (...)**, i64, i64, i32, i32, i32, %"struct.std::ios_base::_Callback_list"*, %"struct.std::ios_base::_Words", [8 x %"struct.std::ios_base::_Words"], i32, %"struct.std::ios_base::_Words"*, %"class.std::locale" }
%"struct.std::ios_base::_Callback_list" = type { %"struct.std::ios_base::_Callback_list"*, void (i32, %"class.std::ios_base"*, i32)*, i32, i32 }
%"struct.std::ios_base::_Words" = type { i8*, i64 }
%"class.std::locale" = type { %"class.std::locale::_Impl"* }
%"class.std::locale::_Impl" = type { i32, %"class.std::locale::facet"**, i64, %"class.std::locale::facet"**, i8** }
%"class.std::locale::facet" = type <{ i32 (...)**, i32, [4 x i8] }>
%"class.std::basic_ostream" = type { i32 (...)**, %"class.std::basic_ios" }
%"class.std::basic_streambuf" = type { i32 (...)**, i8*, i8*, i8*, i8*, i8*, i8*, %"class.std::locale" }
%"class.std::ctype" = type <{ %"class.std::locale::facet.base", [4 x i8], %struct.__locale_struct*, i8, [7 x i8], i32*, i32*, i16*, i8, [256 x i8], [256 x i8], i8, [6 x i8] }>
%"class.std::locale::facet.base" = type <{ i32 (...)**, i32 }>
%struct.__locale_struct = type { [13 x %struct.__locale_data*], i16*, i32*, i32*, [13 x i8*] }
%struct.__locale_data = type opaque
%"class.std::num_put" = type { %"class.std::locale::facet.base", [4 x i8] }
%"class.std::num_get" = type { %"class.std::locale::facet.base", [4 x i8] }

@_ZStL8__ioinit = internal global %"class.std::ios_base::Init" zeroinitializer, align 1
@__dso_handle = external hidden global i8
@a = dso_local global i32 0, align 4
@b = dso_local global i32 0, align 4
@i = dso_local global i32 0, align 4
@j = dso_local global i32 0, align 4
@n = dso_local global i32 0, align 4
@sum = dso_local global i32 0, align 4
@mi = dso_local global i32 0, align 4
@k = dso_local global i32 1, align 4
@num = dso_local global [100 x i8] zeroinitializer, align 16
@input = dso_local global [100 x i8] zeroinitializer, align 16
@_ZSt3cin = external dso_local global %"class.std::basic_istream", align 8
@_ZSt4cout = external dso_local global %"class.std::basic_ostream", align 8
@llvm.global_ctors = appending global [1 x { i32, void ()*, i8* }] [{ i32, void ()*, i8* } { i32 65535, void ()* @_GLOBAL__sub_I_1330.cpp, i8* null }]

; Function Attrs: noinline uwtable
define internal void @__cxx_global_var_init() #0 section ".text.startup" {
  call void @_ZNSt8ios_base4InitC1Ev(%"class.std::ios_base::Init"* @_ZStL8__ioinit)
  %1 = call i32 @__cxa_atexit(void (i8*)* bitcast (void (%"class.std::ios_base::Init"*)* @_ZNSt8ios_base4InitD1Ev to void (i8*)*), i8* getelementptr inbounds (%"class.std::ios_base::Init", %"class.std::ios_base::Init"* @_ZStL8__ioinit, i32 0, i32 0), i8* @__dso_handle) #3
  ret void
}

declare dso_local void @_ZNSt8ios_base4InitC1Ev(%"class.std::ios_base::Init"*) unnamed_addr #1

; Function Attrs: nounwind
declare dso_local void @_ZNSt8ios_base4InitD1Ev(%"class.std::ios_base::Init"*) unnamed_addr #2

; Function Attrs: nounwind
declare dso_local i32 @__cxa_atexit(void (i8*)*, i8*, i8*) #3

; Function Attrs: noinline nounwind uwtable
define dso_local void @_Z4calcv() #4 {
  %1 = load i32, i32* @n, align 4
  %2 = sub nsw i32 %1, 1
  store i32 %2, i32* @i, align 4
  br label %3

3:                                                ; preds = %60, %0
  %4 = load i32, i32* @i, align 4
  %5 = icmp sge i32 %4, 0
  br i1 %5, label %6, label %63

6:                                                ; preds = %3
  %7 = load i32, i32* @i, align 4
  %8 = sext i32 %7 to i64
  %9 = getelementptr inbounds [100 x i8], [100 x i8]* @num, i64 0, i64 %8
  %10 = load i8, i8* %9, align 1
  %11 = sext i8 %10 to i32
  %12 = icmp sle i32 %11, 57
  br i1 %12, label %13, label %24

13:                                               ; preds = %6
  %14 = load i32, i32* @i, align 4
  %15 = sext i32 %14 to i64
  %16 = getelementptr inbounds [100 x i8], [100 x i8]* @num, i64 0, i64 %15
  %17 = load i8, i8* %16, align 1
  %18 = sext i8 %17 to i32
  %19 = sub nsw i32 %18, 48
  %20 = load i32, i32* @k, align 4
  %21 = mul nsw i32 %19, %20
  %22 = load i32, i32* @sum, align 4
  %23 = add nsw i32 %22, %21
  store i32 %23, i32* @sum, align 4
  br label %56

24:                                               ; preds = %6
  %25 = load i32, i32* @i, align 4
  %26 = sext i32 %25 to i64
  %27 = getelementptr inbounds [100 x i8], [100 x i8]* @num, i64 0, i64 %26
  %28 = load i8, i8* %27, align 1
  %29 = sext i8 %28 to i32
  %30 = icmp sle i32 %29, 90
  br i1 %30, label %31, label %43

31:                                               ; preds = %24
  %32 = load i32, i32* @i, align 4
  %33 = sext i32 %32 to i64
  %34 = getelementptr inbounds [100 x i8], [100 x i8]* @num, i64 0, i64 %33
  %35 = load i8, i8* %34, align 1
  %36 = sext i8 %35 to i32
  %37 = sub nsw i32 %36, 65
  %38 = add nsw i32 %37, 10
  %39 = load i32, i32* @k, align 4
  %40 = mul nsw i32 %38, %39
  %41 = load i32, i32* @sum, align 4
  %42 = add nsw i32 %41, %40
  store i32 %42, i32* @sum, align 4
  br label %55

43:                                               ; preds = %24
  %44 = load i32, i32* @i, align 4
  %45 = sext i32 %44 to i64
  %46 = getelementptr inbounds [100 x i8], [100 x i8]* @num, i64 0, i64 %45
  %47 = load i8, i8* %46, align 1
  %48 = sext i8 %47 to i32
  %49 = sub nsw i32 %48, 97
  %50 = add nsw i32 %49, 10
  %51 = load i32, i32* @k, align 4
  %52 = mul nsw i32 %50, %51
  %53 = load i32, i32* @sum, align 4
  %54 = add nsw i32 %53, %52
  store i32 %54, i32* @sum, align 4
  br label %55

55:                                               ; preds = %43, %31
  br label %56

56:                                               ; preds = %55, %13
  %57 = load i32, i32* @a, align 4
  %58 = load i32, i32* @k, align 4
  %59 = mul nsw i32 %58, %57
  store i32 %59, i32* @k, align 4
  br label %60

60:                                               ; preds = %56
  %61 = load i32, i32* @i, align 4
  %62 = add nsw i32 %61, -1
  store i32 %62, i32* @i, align 4
  br label %3

63:                                               ; preds = %3
  ret void
}

; Function Attrs: noinline norecurse uwtable
define dso_local i32 @main() #5 {
  %1 = alloca i32, align 4
  store i32 0, i32* %1, align 4
  %2 = call dereferenceable(280) %"class.std::basic_istream"* @_ZNSirsERi(%"class.std::basic_istream"* @_ZSt3cin, i32* dereferenceable(4) @a)
  %3 = call i32 @_ZNSi3getEv(%"class.std::basic_istream"* @_ZSt3cin)
  %4 = call dereferenceable(280) %"class.std::basic_istream"* @_ZNSi7getlineEPclc(%"class.std::basic_istream"* @_ZSt3cin, i8* getelementptr inbounds ([100 x i8], [100 x i8]* @num, i64 0, i64 0), i64 100, i8 signext 32)
  %5 = call dereferenceable(280) %"class.std::basic_istream"* @_ZNSirsERi(%"class.std::basic_istream"* @_ZSt3cin, i32* dereferenceable(4) @b)
  store i32 0, i32* @i, align 4
  br label %6

6:                                                ; preds = %14, %0
  %7 = load i32, i32* @i, align 4
  %8 = sext i32 %7 to i64
  %9 = getelementptr inbounds [100 x i8], [100 x i8]* @num, i64 0, i64 %8
  %10 = load i8, i8* %9, align 1
  %11 = sext i8 %10 to i32
  %12 = icmp ne i32 %11, 0
  br i1 %12, label %13, label %17

13:                                               ; preds = %6
  br label %14

14:                                               ; preds = %13
  %15 = load i32, i32* @i, align 4
  %16 = add nsw i32 %15, 1
  store i32 %16, i32* @i, align 4
  br label %6

17:                                               ; preds = %6
  %18 = load i32, i32* @i, align 4
  store i32 %18, i32* @n, align 4
  call void @_Z4calcv()
  store i32 0, i32* @i, align 4
  br label %19

19:                                               ; preds = %46, %17
  %20 = load i32, i32* @sum, align 4
  %21 = load i32, i32* @b, align 4
  %22 = srem i32 %20, %21
  store i32 %22, i32* @mi, align 4
  %23 = load i32, i32* @mi, align 4
  %24 = icmp slt i32 %23, 10
  br i1 %24, label %25, label %32

25:                                               ; preds = %19
  %26 = load i32, i32* @mi, align 4
  %27 = add nsw i32 %26, 48
  %28 = trunc i32 %27 to i8
  %29 = load i32, i32* @i, align 4
  %30 = sext i32 %29 to i64
  %31 = getelementptr inbounds [100 x i8], [100 x i8]* @input, i64 0, i64 %30
  store i8 %28, i8* %31, align 1
  br label %40

32:                                               ; preds = %19
  %33 = load i32, i32* @mi, align 4
  %34 = add nsw i32 65, %33
  %35 = sub nsw i32 %34, 10
  %36 = trunc i32 %35 to i8
  %37 = load i32, i32* @i, align 4
  %38 = sext i32 %37 to i64
  %39 = getelementptr inbounds [100 x i8], [100 x i8]* @input, i64 0, i64 %38
  store i8 %36, i8* %39, align 1
  br label %40

40:                                               ; preds = %32, %25
  %41 = load i32, i32* @sum, align 4
  %42 = load i32, i32* @b, align 4
  %43 = sdiv i32 %41, %42
  store i32 %43, i32* @sum, align 4
  %44 = load i32, i32* @i, align 4
  %45 = add nsw i32 %44, 1
  store i32 %45, i32* @i, align 4
  br label %46

46:                                               ; preds = %40
  %47 = load i32, i32* @sum, align 4
  %48 = icmp sgt i32 %47, 0
  br i1 %48, label %19, label %49

49:                                               ; preds = %46
  %50 = load i32, i32* @i, align 4
  %51 = sub nsw i32 %50, 1
  store i32 %51, i32* @j, align 4
  br label %52

52:                                               ; preds = %61, %49
  %53 = load i32, i32* @j, align 4
  %54 = icmp sge i32 %53, 0
  br i1 %54, label %55, label %64

55:                                               ; preds = %52
  %56 = load i32, i32* @j, align 4
  %57 = sext i32 %56 to i64
  %58 = getelementptr inbounds [100 x i8], [100 x i8]* @input, i64 0, i64 %57
  %59 = load i8, i8* %58, align 1
  %60 = call dereferenceable(272) %"class.std::basic_ostream"* @_ZStlsISt11char_traitsIcEERSt13basic_ostreamIcT_ES5_c(%"class.std::basic_ostream"* dereferenceable(272) @_ZSt4cout, i8 signext %59)
  br label %61

61:                                               ; preds = %55
  %62 = load i32, i32* @j, align 4
  %63 = add nsw i32 %62, -1
  store i32 %63, i32* @j, align 4
  br label %52

64:                                               ; preds = %52
  ret i32 0
}

declare dso_local dereferenceable(280) %"class.std::basic_istream"* @_ZNSirsERi(%"class.std::basic_istream"*, i32* dereferenceable(4)) #1

declare dso_local i32 @_ZNSi3getEv(%"class.std::basic_istream"*) #1

declare dso_local dereferenceable(280) %"class.std::basic_istream"* @_ZNSi7getlineEPclc(%"class.std::basic_istream"*, i8*, i64, i8 signext) #1

declare dso_local dereferenceable(272) %"class.std::basic_ostream"* @_ZStlsISt11char_traitsIcEERSt13basic_ostreamIcT_ES5_c(%"class.std::basic_ostream"* dereferenceable(272), i8 signext) #1

; Function Attrs: noinline uwtable
define internal void @_GLOBAL__sub_I_1330.cpp() #0 section ".text.startup" {
  call void @__cxx_global_var_init()
  ret void
}


!llvm.module.flags = !{!0}
!llvm.ident = !{!1}

!0 = !{i32 1, !"wchar_size", i32 4}
!1 = !{!"clang version 10.0.0-4ubuntu1 "}
